Certificate:
    Data:
        Version: 3 (0x2)
        Serial Number: 2 (0x2)
        Signature Algorithm: ED25519
        Issuer: C=CN, ST=BJ, L=BJ, O=Company.Ltd, OU=QOS, CN=BASE
        Validity
            Not Before: Sep 29 04:15:19 2018 GMT
            Not After : Sep 29 04:15:19 2019 GMT
        Subject: C=CN, ST=BJ, O=Company.Ltd, OU=QOS, CN=QSC02/emailAddress=owner@QSC02.QOS
        Subject Public Key Info:
            Public Key Algorithm: ED25519
                ED25519 Public-Key:
                pub:
                    39:82:dc:ef:28:f7:ac:5a:77:6a:01:a2:0c:8d:89:
                    b1:89:42:66:bd:ec:33:ad:3a:98:cb:0f:6a:0c:be:
                    ec:e9
        X509v3 extensions:
            X509v3 Basic Constraints: 
                CA:FALSE
            Netscape Comment: 
                OpenSSL Generated Certificate
            X509v3 Subject Key Identifier: 
                0D:F2:1F:3A:95:38:10:1E:A3:15:12:23:8C:60:B5:6D:F7:18:DE:BB
            X509v3 Authority Key Identifier: 
                keyid:AC:65:64:D8:CB:D4:B7:BA:A7:5A:99:84:64:7E:AD:B2:73:83:54:9A

    Signature Algorithm: ED25519
         79:18:b2:92:d0:fa:d1:1d:18:1f:16:5b:0c:04:5a:20:09:83:
         2f:58:7c:a6:05:73:78:d6:9f:77:3f:fe:de:d9:95:02:82:dd:
         40:f9:f1:de:6a:25:3d:69:86:ba:fa:4f:c0:93:b1:28:57:36:
         62:9f:e5:e0:fa:3a:59:45:30:04
-----BEGIN CERTIFICATE-----
MIIB8jCCAaSgAwIBAgIBAjAFBgMrZXAwWjELMAkGA1UEBhMCQ04xCzAJBgNVBAgM
AkJKMQswCQYDVQQHDAJCSjEUMBIGA1UECgwLQ29tcGFueS5MdGQxDDAKBgNVBAsM
A1FPUzENMAsGA1UEAwwEQkFTRTAeFw0xODA5MjkwNDE1MTlaFw0xOTA5MjkwNDE1
MTlaMG4xCzAJBgNVBAYTAkNOMQswCQYDVQQIDAJCSjEUMBIGA1UECgwLQ29tcGFu
eS5MdGQxDDAKBgNVBAsMA1FPUzEOMAwGA1UEAwwFUVNDMDIxHjAcBgkqhkiG9w0B
CQEWD293bmVyQFFTQzAyLlFPUzAqMAUGAytlcAMhADmC3O8o96xad2oBogyNibGJ
Qma97DOtOpjLD2oMvuzpo3sweTAJBgNVHRMEAjAAMCwGCWCGSAGG+EIBDQQfFh1P
cGVuU1NMIEdlbmVyYXRlZCBDZXJ0aWZpY2F0ZTAdBgNVHQ4EFgQUDfIfOpU4EB6j
FRIjjGC1bfcY3rswHwYDVR0jBBgwFoAUrGVk2MvUt7qnWpmEZH6tsnODVJowBQYD
K2VwA0EAeRiyktD60R0YHxZbDARaIAmDL1h8pgVzeNafdz/+3tmVAoLdQPnx3mol
PWmGuvpPwJOxKFc2Yp/l4Po6WUUwBA==
-----END CERTIFICATE-----
