Certificate:
    Data:
        Version: 3 (0x2)
        Serial Number: 1 (0x1)
        Signature Algorithm: ED25519
        Issuer: C=CN, ST=BeiJing, L=BeiJing, O=Default Company Ltd, OU=QOS
        Validity
            Not Before: Sep 29 03:20:00 2018 GMT
            Not After : Sep 29 03:20:00 2019 GMT
        Subject: C=CN, ST=BJ, O=Company.Ltd, OU=QOS, CN=QOS01/emailAddress=owner@QOS01.QOS
        Subject Public Key Info:
            Public Key Algorithm: ED25519
                ED25519 Public-Key:
                pub:
                    62:23:b2:62:90:fc:a5:c7:73:e8:7e:12:40:90:ed:
                    84:09:a0:b2:4d:83:c2:58:ea:3b:a6:49:14:d5:7c:
                    0a:70
        X509v3 extensions:
            X509v3 Basic Constraints: 
                CA:FALSE
            Netscape Comment: 
                OpenSSL Generated Certificate
            X509v3 Subject Key Identifier: 
                7A:63:D6:B5:A2:E2:EB:C2:C3:6C:48:80:51:10:B5:74:26:35:7C:0A
            X509v3 Authority Key Identifier: 
                keyid:54:25:AA:89:3B:03:60:25:82:34:5B:74:BB:25:1A:28:61:D1:72:B9

    Signature Algorithm: ED25519
         29:f4:c0:75:c2:54:9c:2a:b3:9e:45:61:d9:48:5c:5e:a7:ec:
         e1:34:23:bf:9d:15:cb:38:9e:d6:09:e5:bf:46:9d:61:b3:48:
         e1:6b:76:46:52:33:9d:98:51:44:a4:2f:91:44:ee:b5:d3:d6:
         83:94:9b:c9:46:32:35:e0:6b:0e
-----BEGIN CERTIFICATE-----
MIIB9TCCAaegAwIBAgIBATAFBgMrZXAwXTELMAkGA1UEBhMCQ04xEDAOBgNVBAgM
B0JlaUppbmcxEDAOBgNVBAcMB0JlaUppbmcxHDAaBgNVBAoME0RlZmF1bHQgQ29t
cGFueSBMdGQxDDAKBgNVBAsMA1FPUzAeFw0xODA5MjkwMzIwMDBaFw0xOTA5Mjkw
MzIwMDBaMG4xCzAJBgNVBAYTAkNOMQswCQYDVQQIDAJCSjEUMBIGA1UECgwLQ29t
cGFueS5MdGQxDDAKBgNVBAsMA1FPUzEOMAwGA1UEAwwFUU9TMDExHjAcBgkqhkiG
9w0BCQEWD293bmVyQFFPUzAxLlFPUzAqMAUGAytlcAMhAGIjsmKQ/KXHc+h+EkCQ
7YQJoLJNg8JY6jumSRTVfApwo3sweTAJBgNVHRMEAjAAMCwGCWCGSAGG+EIBDQQf
Fh1PcGVuU1NMIEdlbmVyYXRlZCBDZXJ0aWZpY2F0ZTAdBgNVHQ4EFgQUemPWtaLi
68LDbEiAURC1dCY1fAowHwYDVR0jBBgwFoAUVCWqiTsDYCWCNFt0uyUaKGHRcrkw
BQYDK2VwA0EAKfTAdcJUnCqznkVh2UhcXqfs4TQjv50Vyzie1gnlv0adYbNI4Wt2
RlIznZhRRKQvkUTutdPWg5SbyUYyNeBrDg==
-----END CERTIFICATE-----
