Certificate:
    Data:
        Version: 3 (0x2)
        Serial Number: 1 (0x1)
        Signature Algorithm: ED25519
        Issuer: C=CN, ST=BeiJing, L=BeiJing, O=Default Company Ltd, OU=QOS
        Validity
            Not Before: Sep 29 01:50:32 2018 GMT
            Not After : Sep 29 01:50:32 2019 GMT
        Subject: C=CN, ST=BJ, O=Company.Ltd, OU=QOS, CN=QOS01/emailAddress=owner@QOS01.QOS
        Subject Public Key Info:
            Public Key Algorithm: ED25519
                ED25519 Public-Key:
                pub:
                    f8:3f:34:dc:85:84:20:52:31:f7:2d:9d:f0:0f:f5:
                    6b:e4:38:8c:87:8d:26:2a:30:b2:de:ba:bd:bf:6f:
                    be:05
        X509v3 extensions:
            X509v3 Basic Constraints: 
                CA:FALSE
            Netscape Comment: 
                OpenSSL Generated Certificate
            X509v3 Subject Key Identifier: 
                61:3B:A7:FE:8C:78:4A:54:9D:AC:F2:6A:12:22:23:2E:2C:F0:1D:DA
            X509v3 Authority Key Identifier: 
                keyid:F7:E6:5D:C3:71:52:55:99:14:17:91:70:F5:B5:43:4C:90:CF:16:3C

    Signature Algorithm: ED25519
         3c:d4:c0:cb:84:9b:b9:76:a5:62:99:9a:da:6b:d7:16:39:5a:
         d7:90:8d:dd:9c:6d:3c:1e:0f:9c:c2:2d:f8:2c:43:20:6c:90:
         f9:cf:a8:32:8b:41:38:0e:62:19:55:80:da:64:3e:f3:52:51:
         1a:ca:d3:90:a7:a2:64:49:c9:06
-----BEGIN CERTIFICATE-----
MIIB9TCCAaegAwIBAgIBATAFBgMrZXAwXTELMAkGA1UEBhMCQ04xEDAOBgNVBAgM
B0JlaUppbmcxEDAOBgNVBAcMB0JlaUppbmcxHDAaBgNVBAoME0RlZmF1bHQgQ29t
cGFueSBMdGQxDDAKBgNVBAsMA1FPUzAeFw0xODA5MjkwMTUwMzJaFw0xOTA5Mjkw
MTUwMzJaMG4xCzAJBgNVBAYTAkNOMQswCQYDVQQIDAJCSjEUMBIGA1UECgwLQ29t
cGFueS5MdGQxDDAKBgNVBAsMA1FPUzEOMAwGA1UEAwwFUU9TMDExHjAcBgkqhkiG
9w0BCQEWD293bmVyQFFPUzAxLlFPUzAqMAUGAytlcAMhAPg/NNyFhCBSMfctnfAP
9WvkOIyHjSYqMLLeur2/b74Fo3sweTAJBgNVHRMEAjAAMCwGCWCGSAGG+EIBDQQf
Fh1PcGVuU1NMIEdlbmVyYXRlZCBDZXJ0aWZpY2F0ZTAdBgNVHQ4EFgQUYTun/ox4
SlSdrPJqEiIjLizwHdowHwYDVR0jBBgwFoAU9+Zdw3FSVZkUF5Fw9bVDTJDPFjww
BQYDK2VwA0EAPNTAy4SbuXalYpma2mvXFjla15CN3ZxtPB4PnMIt+CxDIGyQ+c+o
MotBOA5iGVWA2mQ+81JRGsrTkKeiZEnJBg==
-----END CERTIFICATE-----
